; Function Attrs: nounwind uwtable
define zeroext range(i8 0, 2) i8 @l_Array_anyMUnsafe_any___at_Lean_Linter_UnusedVariables_unusedVariables___elambda__1___spec__12(ptr noundef %0, ptr noundef %1, ptr noundef %2, ptr noundef readonly captures(none) %3, i64 noundef %4, i64 noundef %5) local_unnamed_addr #1 {
  %.not73 = icmp eq i64 %4, %5
  br i1 %.not73, label %.._crit_edge_crit_edge, label %.lr.ph

.._crit_edge_crit_edge:                           ; preds = %6
  %.pre = ptrtoint ptr %2 to i64
  %.pre75 = and i64 %.pre, 1
  br label %._crit_edge

.lr.ph:                                           ; preds = %6
  %7 = getelementptr inbounds nuw i8, ptr %3, i64 24
  %8 = ptrtoint ptr %1 to i64
  %9 = and i64 %8, 1
  %.not69 = icmp eq i64 %9, 0
  %10 = ptrtoint ptr %2 to i64
  %11 = and i64 %10, 1
  %.not70 = icmp eq i64 %11, 0
  %12 = ptrtoint ptr %0 to i64
  %13 = and i64 %12, 1
  %.not71 = icmp eq i64 %13, 0
  br label %16

14:                                               ; preds = %lean_dec.exit37
  %15 = add i64 %.02774, 1
  %.not = icmp eq i64 %15, %5
  br i1 %.not, label %._crit_edge, label %16

16:                                               ; preds = %.lr.ph, %14
  %.02774 = phi i64 [ %4, %.lr.ph ], [ %15, %14 ]
  %17 = getelementptr inbounds nuw [0 x ptr], ptr %7, i64 0, i64 %.02774
  %18 = load ptr, ptr %17, align 8, !tbaa !4
  %19 = ptrtoint ptr %18 to i64
  %20 = and i64 %19, 1
  %.not.i52 = icmp eq i64 %20, 0
  br i1 %.not.i52, label %21, label %lean_array_uget.exit

21:                                               ; preds = %16
  %.val.i.i = load i32, ptr %18, align 4, !tbaa !8
  %22 = icmp sgt i32 %.val.i.i, 0
  br i1 %22, label %23, label %25, !prof !11

23:                                               ; preds = %21
  %24 = add nuw i32 %.val.i.i, 1
  store i32 %24, ptr %18, align 4, !tbaa !8
  br label %lean_array_uget.exit

25:                                               ; preds = %21
  %.not.i.i = icmp eq i32 %.val.i.i, 0
  br i1 %.not.i.i, label %lean_array_uget.exit, label %26

26:                                               ; preds = %25
  tail call void @lean_inc_ref_cold(ptr noundef nonnull %18) #7
  br label %lean_array_uget.exit

lean_array_uget.exit:                             ; preds = %16, %23, %25, %26
  br i1 %.not69, label %27, label %lean_inc.exit39

27:                                               ; preds = %lean_array_uget.exit
  %.val.i = load i32, ptr %1, align 4, !tbaa !8
  %28 = icmp sgt i32 %.val.i, 0
  br i1 %28, label %29, label %31, !prof !11

29:                                               ; preds = %27
  %30 = add nuw i32 %.val.i, 1
  store i32 %30, ptr %1, align 4, !tbaa !8
  br label %lean_inc.exit39

31:                                               ; preds = %27
  %.not.i53 = icmp eq i32 %.val.i, 0
  br i1 %.not.i53, label %lean_inc.exit39, label %32

32:                                               ; preds = %31
  tail call void @lean_inc_ref_cold(ptr noundef nonnull %1) #7
  br label %lean_inc.exit39

lean_inc.exit39:                                  ; preds = %32, %31, %29, %lean_array_uget.exit
  br i1 %.not70, label %33, label %lean_inc.exit38

33:                                               ; preds = %lean_inc.exit39
  %.val.i54 = load i32, ptr %2, align 4, !tbaa !8
  %34 = icmp sgt i32 %.val.i54, 0
  br i1 %34, label %35, label %37, !prof !11

35:                                               ; preds = %33
  %36 = add nuw i32 %.val.i54, 1
  store i32 %36, ptr %2, align 4, !tbaa !8
  br label %lean_inc.exit38

37:                                               ; preds = %33
  %.not.i55 = icmp eq i32 %.val.i54, 0
  br i1 %.not.i55, label %lean_inc.exit38, label %38

38:                                               ; preds = %37
  tail call void @lean_inc_ref_cold(ptr noundef nonnull %2) #7
  br label %lean_inc.exit38

lean_inc.exit38:                                  ; preds = %38, %37, %35, %lean_inc.exit39
  br i1 %.not71, label %39, label %lean_inc.exit

39:                                               ; preds = %lean_inc.exit38
  %.val.i57 = load i32, ptr %0, align 4, !tbaa !8
  %40 = icmp sgt i32 %.val.i57, 0
  br i1 %40, label %41, label %43, !prof !11

41:                                               ; preds = %39
  %42 = add nuw i32 %.val.i57, 1
  store i32 %42, ptr %0, align 4, !tbaa !8
  br label %lean_inc.exit

43:                                               ; preds = %39
  %.not.i58 = icmp eq i32 %.val.i57, 0
  br i1 %.not.i58, label %lean_inc.exit, label %44

44:                                               ; preds = %43
  tail call void @lean_inc_ref_cold(ptr noundef nonnull %0) #7
  br label %lean_inc.exit

lean_inc.exit:                                    ; preds = %44, %43, %41, %lean_inc.exit38
  %45 = tail call ptr @lean_apply_3(ptr noundef %18, ptr noundef %0, ptr noundef %2, ptr noundef %1) #7
  %46 = ptrtoint ptr %45 to i64
  %47 = and i64 %46, 1
  %.not72 = icmp eq i64 %47, 0
  br i1 %.not72, label %48, label %lean_dec.exit37

48:                                               ; preds = %lean_inc.exit
  %49 = load i32, ptr %45, align 4, !tbaa !8
  %50 = icmp sgt i32 %49, 1
  br i1 %50, label %51, label %53, !prof !11

51:                                               ; preds = %48
  %52 = add nsw i32 %49, -1
  store i32 %52, ptr %45, align 4, !tbaa !8
  br label %lean_dec.exit37

53:                                               ; preds = %48
  %.not.i = icmp eq i32 %49, 0
  br i1 %.not.i, label %lean_dec.exit37, label %54

54:                                               ; preds = %53
  tail call void @lean_dec_ref_cold(ptr noundef nonnull %45) #7
  br label %lean_dec.exit37

lean_dec.exit37:                                  ; preds = %54, %53, %51, %lean_inc.exit
  %55 = and i64 %46, 510
  %56 = icmp eq i64 %55, 0
  br i1 %56, label %14, label %57

57:                                               ; preds = %lean_dec.exit37
  br i1 %.not70, label %58, label %lean_dec.exit36

58:                                               ; preds = %57
  %59 = load i32, ptr %2, align 4, !tbaa !8
  %60 = icmp sgt i32 %59, 1
  br i1 %60, label %61, label %63, !prof !11

61:                                               ; preds = %58
  %62 = add nsw i32 %59, -1
  store i32 %62, ptr %2, align 4, !tbaa !8
  br label %lean_dec.exit36

63:                                               ; preds = %58
  %.not.i40 = icmp eq i32 %59, 0
  br i1 %.not.i40, label %lean_dec.exit36, label %64

64:                                               ; preds = %63
  tail call void @lean_dec_ref_cold(ptr noundef nonnull %2) #7
  br label %lean_dec.exit36

lean_dec.exit36:                                  ; preds = %64, %63, %61, %57
  br i1 %.not69, label %65, label %lean_dec.exit35

65:                                               ; preds = %lean_dec.exit36
  %66 = load i32, ptr %1, align 4, !tbaa !8
  %67 = icmp sgt i32 %66, 1
  br i1 %67, label %68, label %70, !prof !11

68:                                               ; preds = %65
  %69 = add nsw i32 %66, -1
  store i32 %69, ptr %1, align 4, !tbaa !8
  br label %lean_dec.exit35

70:                                               ; preds = %65
  %.not.i42 = icmp eq i32 %66, 0
  br i1 %.not.i42, label %lean_dec.exit35, label %71

71:                                               ; preds = %70
  tail call void @lean_dec_ref_cold(ptr noundef nonnull %1) #7
  br label %lean_dec.exit35

lean_dec.exit35:                                  ; preds = %71, %70, %68, %lean_dec.exit36
  br i1 %.not71, label %72, label %104

72:                                               ; preds = %lean_dec.exit35
  %73 = load i32, ptr %0, align 4, !tbaa !8
  %74 = icmp sgt i32 %73, 1
  br i1 %74, label %75, label %77, !prof !11

75:                                               ; preds = %72
  %76 = add nsw i32 %73, -1
  store i32 %76, ptr %0, align 4, !tbaa !8
  br label %104

77:                                               ; preds = %72
  %.not.i44 = icmp eq i32 %73, 0
  br i1 %.not.i44, label %104, label %78

78:                                               ; preds = %77
  tail call void @lean_dec_ref_cold(ptr noundef nonnull %0) #7
  br label %104

._crit_edge:                                      ; preds = %14, %.._crit_edge_crit_edge
  %.pre-phi76 = phi i64 [ %.pre75, %.._crit_edge_crit_edge ], [ %11, %14 ]
  %.not66 = icmp eq i64 %.pre-phi76, 0
  br i1 %.not66, label %79, label %lean_dec.exit33

79:                                               ; preds = %._crit_edge
  %80 = load i32, ptr %2, align 4, !tbaa !8
  %81 = icmp sgt i32 %80, 1
  br i1 %81, label %82, label %84, !prof !11

82:                                               ; preds = %79
  %83 = add nsw i32 %80, -1
  store i32 %83, ptr %2, align 4, !tbaa !8
  br label %lean_dec.exit33

84:                                               ; preds = %79
  %.not.i46 = icmp eq i32 %80, 0
  br i1 %.not.i46, label %lean_dec.exit33, label %85

85:                                               ; preds = %84
  tail call void @lean_dec_ref_cold(ptr noundef nonnull %2) #7
  br label %lean_dec.exit33

lean_dec.exit33:                                  ; preds = %85, %84, %82, %._crit_edge
  %86 = ptrtoint ptr %1 to i64
  %87 = and i64 %86, 1
  %.not67 = icmp eq i64 %87, 0
  br i1 %.not67, label %88, label %lean_dec.exit32

88:                                               ; preds = %lean_dec.exit33
  %89 = load i32, ptr %1, align 4, !tbaa !8
  %90 = icmp sgt i32 %89, 1
  br i1 %90, label %91, label %93, !prof !11

91:                                               ; preds = %88
  %92 = add nsw i32 %89, -1
  store i32 %92, ptr %1, align 4, !tbaa !8
  br label %lean_dec.exit32

93:                                               ; preds = %88
  %.not.i48 = icmp eq i32 %89, 0
  br i1 %.not.i48, label %lean_dec.exit32, label %94

94:                                               ; preds = %93
  tail call void @lean_dec_ref_cold(ptr noundef nonnull %1) #7
  br label %lean_dec.exit32

lean_dec.exit32:                                  ; preds = %94, %93, %91, %lean_dec.exit33
  %95 = ptrtoint ptr %0 to i64
  %96 = and i64 %95, 1
  %.not68 = icmp eq i64 %96, 0
  br i1 %.not68, label %97, label %104

97:                                               ; preds = %lean_dec.exit32
  %98 = load i32, ptr %0, align 4, !tbaa !8
  %99 = icmp sgt i32 %98, 1
  br i1 %99, label %100, label %102, !prof !11

100:                                              ; preds = %97
  %101 = add nsw i32 %98, -1
  store i32 %101, ptr %0, align 4, !tbaa !8
  br label %104

102:                                              ; preds = %97
  %.not.i50 = icmp eq i32 %98, 0
  br i1 %.not.i50, label %104, label %103

103:                                              ; preds = %102
  tail call void @lean_dec_ref_cold(ptr noundef nonnull %0) #7
  br label %104

104:                                              ; preds = %78, %77, %75, %lean_dec.exit35, %103, %102, %100, %lean_dec.exit32
  %.2.ph = phi i8 [ 0, %lean_dec.exit32 ], [ 0, %100 ], [ 0, %102 ], [ 0, %103 ], [ 1, %lean_dec.exit35 ], [ 1, %75 ], [ 1, %77 ], [ 1, %78 ]
  ret i8 %.2.ph
}